target datalayout = "e-m:e-p270:32:32-p271:32:32-p272:64:64-i64:64-i128:128-f80:128-n8:16:32:64-S128"
target triple = "x86_64-pc-linux-gnu"

%union.__SOCKADDR_ARG = type { ptr }

; Function Attrs: nounwind uwtable
define hidden i32 @uv__accept(i32 noundef %0) #0 {
  %2 = alloca i32, align 4
  %3 = alloca i32, align 4
  %4 = alloca i32, align 4
  %5 = alloca %union.__SOCKADDR_ARG, align 8
  %6 = alloca i32, align 4
  store i32 %0, ptr %3, align 4
  call void @llvm.lifetime.start.p0(i64 4, ptr %4) #11
  br label %7

7:                                                ; preds = %19, %1
  %8 = load i32, ptr %3, align 4
  store ptr null, ptr %5, align 8
  %9 = getelementptr inbounds nuw %union.__SOCKADDR_ARG, ptr %5, i32 0, i32 0
  %10 = load ptr, ptr %9, align 8
  %11 = call i32 @accept4(i32 noundef %8, ptr %10, ptr noundef null, i32 noundef 526336)
  store i32 %11, ptr %4, align 4
  br label %12

12:                                               ; preds = %7
  %13 = load i32, ptr %4, align 4
  %14 = icmp eq i32 %13, -1
  br i1 %14, label %15, label %19

15:                                               ; preds = %12
  %16 = call ptr @__errno_location() #12
  %17 = load i32, ptr %16, align 4
  %18 = icmp eq i32 %17, 4
  br label %19

19:                                               ; preds = %15, %12
  %20 = phi i1 [ false, %12 ], [ %18, %15 ]
  br i1 %20, label %7, label %21

21:                                               ; preds = %19
  %22 = load i32, ptr %4, align 4
  %23 = icmp eq i32 %22, -1
  br i1 %23, label %24, label %28

24:                                               ; preds = %21
  %25 = call ptr @__errno_location() #12
  %26 = load i32, ptr %25, align 4
  %27 = sub nsw i32 0, %26
  store i32 %27, ptr %2, align 4
  store i32 1, ptr %6, align 4
  br label %30

28:                                               ; preds = %21
  %29 = load i32, ptr %4, align 4
  store i32 %29, ptr %2, align 4
  store i32 1, ptr %6, align 4
  br label %30

30:                                               ; preds = %28, %24
  call void @llvm.lifetime.end.p0(i64 4, ptr %4) #11
  %31 = load i32, ptr %2, align 4
  ret i32 %31
}