; Function Attrs: nounwind uwtable
define hidden i32 @uv__accept(i32 noundef %0) local_unnamed_addr #0 {
  br label %2

2:                                                ; preds = %5, %1
  %3 = tail call i32 @accept4(i32 noundef %0, ptr null, ptr noundef null, i32 noundef 526336) #23
  %4 = icmp eq i32 %3, -1
  br i1 %4, label %5, label %.critedge6

5:                                                ; preds = %2
  %6 = tail call ptr @__errno_location() #24
  %7 = load i32, ptr %6, align 4
  %8 = icmp eq i32 %7, 4
  br i1 %8, label %2, label %.critedge

.critedge:                                        ; preds = %5
  %9 = sub nsw i32 0, %7
  br label %.critedge6

.critedge6:                                       ; preds = %2, %.critedge
  %.0 = phi i32 [ %9, %.critedge ], [ %3, %2 ]
  ret i32 %.0
}